; Function Attrs: mustprogress uwtable
define void @_ZN3gmx20AbstractAnalysisData15setDataSetCountEi(ptr noundef nonnull readonly align 8 captures(none) dereferenceable(16) %0, i32 noundef %1) local_unnamed_addr #1 align 2 personality ptr @__gxx_personality_v0 {
  %3 = icmp sgt i32 %1, 0
  br i1 %3, label %5, label %4

4:                                                ; preds = %2
  tail call void @_ZN3gmx8internal13assertHandlerEPKcS2_S2_S2_i(ptr noundef nonnull @.str.8, ptr noundef nonnull @.str.9, ptr noundef nonnull @"__PRETTY_FUNCTION__._ZZN3gmx20AbstractAnalysisData15setDataSetCountEiENK3$_0clEv", ptr noundef nonnull @.str.2, i32 noundef 175) #24
  unreachable

5:                                                ; preds = %2
  %6 = getelementptr inbounds nuw i8, ptr %0, i64 8
  %7 = load ptr, ptr %6, align 8, !tbaa !16
  %8 = getelementptr inbounds nuw i8, ptr %7, i64 32
  %9 = icmp ne i32 %1, 1
  tail call void @_ZN3gmx25AnalysisDataModuleManager25dataPropertyAboutToChangeENS0_12DataPropertyEb(ptr noundef nonnull align 8 dereferenceable(8) %8, i32 noundef 0, i1 noundef zeroext %9)
  %10 = load ptr, ptr %6, align 8, !tbaa !16
  %11 = zext nneg i32 %1 to i64
  %12 = getelementptr inbounds nuw i8, ptr %10, i64 8
  %13 = load ptr, ptr %12, align 8, !tbaa !4
  %14 = load ptr, ptr %10, align 8, !tbaa !13
  %15 = ptrtoint ptr %13 to i64
  %16 = ptrtoint ptr %14 to i64
  %17 = sub i64 %15, %16
  %18 = ashr exact i64 %17, 2
  %19 = icmp ult i64 %18, %11
  br i1 %19, label %20, label %22

20:                                               ; preds = %5
  %21 = sub nuw nsw i64 %11, %18
  tail call void @_ZNSt6vectorIiSaIiEE17_M_default_appendEm(ptr noundef nonnull align 8 dereferenceable(24) %10, i64 noundef %21)
  br label %_ZNSt6vectorIiSaIiEE6resizeEm.exit

22:                                               ; preds = %5
  %23 = icmp ugt i64 %18, %11
  br i1 %23, label %24, label %_ZNSt6vectorIiSaIiEE6resizeEm.exit

24:                                               ; preds = %22
  %25 = getelementptr inbounds nuw i32, ptr %14, i64 %11
  %.not.i.i = icmp eq ptr %13, %25
  br i1 %.not.i.i, label %_ZNSt6vectorIiSaIiEE6resizeEm.exit, label %26

26:                                               ; preds = %24
  store ptr %25, ptr %12, align 8, !tbaa !4
  br label %_ZNSt6vectorIiSaIiEE6resizeEm.exit

_ZNSt6vectorIiSaIiEE6resizeEm.exit:               ; preds = %20, %22, %24, %26
  ret void
}